target datalayout = "e-m:e-p270:32:32-p271:32:32-p272:64:64-i64:64-i128:128-f80:128-n8:16:32:64-S128"
target triple = "x86_64-unknown-linux-gnu"

; Function Attrs: mustprogress nounwind uwtable
define linkonce_odr noundef ptr @_ZN6icu_7511Formattable16fromUFormattableEPPv(ptr noundef %fmt) #0 comdat align 2 {
entry:
  %fmt.addr = alloca ptr, align 8
  store ptr %fmt, ptr %fmt.addr, align 8
  %0 = load ptr, ptr %fmt.addr, align 8
  ret ptr %0
}

; Function Attrs: mustprogress uwtable
define void @ufmt_close_75(ptr noundef %fmt) #1 {
entry:
  %fmt.addr = alloca ptr, align 8
  %obj = alloca ptr, align 8
  store ptr %fmt, ptr %fmt.addr, align 8
  %0 = load ptr, ptr %fmt.addr, align 8
  %call = call noundef ptr @_ZN6icu_7511Formattable16fromUFormattableEPPv(ptr noundef %0)
  store ptr %call, ptr %obj, align 8
  %1 = load ptr, ptr %obj, align 8
  %isnull = icmp eq ptr %1, null
  br i1 %isnull, label %delete.end, label %delete.notnull

delete.notnull:                                   ; preds = %entry
  %vtable = load ptr, ptr %1, align 8
  %vfn = getelementptr inbounds ptr, ptr %vtable, i64 1
  %2 = load ptr, ptr %vfn, align 8
  call void %2(ptr noundef nonnull align 8 dereferenceable(112) %1) #10
  br label %delete.end

delete.end:                                       ; preds = %delete.notnull, %entry
  ret void
}