; Function Attrs: mustprogress uwtable
define void @ufmt_close_75(ptr noundef %fmt) local_unnamed_addr #1 {
entry:
  %isnull = icmp eq ptr %fmt, null
  br i1 %isnull, label %delete.end, label %delete.notnull

delete.notnull:                                   ; preds = %entry
  %vtable = load ptr, ptr %fmt, align 8
  %vfn = getelementptr inbounds i8, ptr %vtable, i64 8
  %0 = load ptr, ptr %vfn, align 8
  tail call void %0(ptr noundef nonnull align 8 dereferenceable(112) %fmt) #16
  br label %delete.end

delete.end:                                       ; preds = %delete.notnull, %entry
  ret void
}